; Function Attrs: mustprogress nofree norecurse nosync nounwind willreturn memory(argmem: read) uwtable
define noundef zeroext i1 @_ZNK3zmq14session_base_t11zap_enabledEv(ptr noundef nonnull readonly align 8 captures(none) dereferenceable(1624) %0) local_unnamed_addr #16 align 2 {
  %2 = getelementptr inbounds nuw i8, ptr %0, i64 680
  %3 = load i32, ptr %2, align 8, !tbaa !120
  %.not = icmp ne i32 %3, 0
  %4 = getelementptr inbounds nuw i8, ptr %0, i64 696
  %5 = load i64, ptr %4, align 8
  %6 = icmp ne i64 %5, 0
  %7 = select i1 %.not, i1 true, i1 %6
  ret i1 %7
}